c__builtin__
set
p0
((lp1
S'2804acb62fb1eea9f26a833a7345abf1'
p2
aS'eacce3bd873253bbca3e46f7eb6d36c8'
p3
aS'6522596f59d3a07a7c1e21fdf5849f6f'
p4
aS'af8ba6c02f1da4fa921b25548e532d60'
p5
aS'649e0a67e84ceb01eb3a9faa8e1cf858'
p6
atp7
Rp8
.