c__builtin__
set
p0
((lp1
S'ea452a4ef21e38033dca73fea7895156'
p2
aS'46067c3db48bbe7c785a06c8eec269d9'
p3
aS'7b1a6682a57521d00fee27d0d41c1e8f'
p4
aS'32e6bd002433163127f720ef6ebec6ba'
p5
aS'7583228f1165d63fe834edca690c5e16'
p6
aS'a7b97a0446b72b8f0fd0b7156c9731b9'
p7
aS'fc26342765bb2860d544ecf7b3ff262c'
p8
atp9
Rp10
.