(lp0
S'7583228f1165d63fe834edca690c5e16'
p1
aS'a3c4f8c33bdaf43041285dc7a81aaa9c'
p2
aS'a7b97a0446b72b8f0fd0b7156c9731b9'
p3
aS'46067c3db48bbe7c785a06c8eec269d9'
p4
aS'32e6bd002433163127f720ef6ebec6ba'
p5
aS'fc26342765bb2860d544ecf7b3ff262c'
p6
aS'7b1a6682a57521d00fee27d0d41c1e8f'
p7
aS'bda08c3009fc55fd30dec3d7c4ce6876'
p8
aS'8a80f72cb44ddee983685a868794b9ef'
p9
a.