c__builtin__
set
p0
((lp1
S'7b1a6682a57521d00fee27d0d41c1e8f'
p2
aS'8a80f72cb44ddee983685a868794b9ef'
p3
aS'3137425a1c5c7d70497cf6596da94928'
p4
aS'a3c4f8c33bdaf43041285dc7a81aaa9c'
p5
aS'ea452a4ef21e38033dca73fea7895156'
p6
aS'bda08c3009fc55fd30dec3d7c4ce6876'
p7
aS'956089eeb6af6767ac4ba8159e8fa2b2'
p8
aS'46067c3db48bbe7c785a06c8eec269d9'
p9
aS'3178dc847bead6a2ad646bc3d574eadb'
p10
aS'32e6bd002433163127f720ef6ebec6ba'
p11
aS'7583228f1165d63fe834edca690c5e16'
p12
aS'a7b97a0446b72b8f0fd0b7156c9731b9'
p13
aS'fc26342765bb2860d544ecf7b3ff262c'
p14
atp15
Rp16
.